target datalayout = "e-m:e-p270:32:32-p271:32:32-p272:64:64-i64:64-i128:128-f80:128-n8:16:32:64-S128"
target triple = "x86_64-pc-linux-gnu"

%class.dtQueryFilter = type { [64 x float], i16, i16 }

; Function Attrs: mustprogress nounwind uwtable
define void @_ZN13dtQueryFilterC2Ev(ptr noundef nonnull align 4 dereferenceable(260) %0) unnamed_addr #0 align 2 {
  %2 = alloca ptr, align 8
  %3 = alloca i32, align 4
  store ptr %0, ptr %2, align 8
  %4 = load ptr, ptr %2, align 8
  %5 = getelementptr inbounds %class.dtQueryFilter, ptr %4, i32 0, i32 1
  store i16 -1, ptr %5, align 4
  %6 = getelementptr inbounds %class.dtQueryFilter, ptr %4, i32 0, i32 2
  store i16 0, ptr %6, align 2
  store i32 0, ptr %3, align 4
  br label %7

7:                                                ; preds = %15, %1
  %8 = load i32, ptr %3, align 4
  %9 = icmp slt i32 %8, 64
  br i1 %9, label %10, label %18

10:                                               ; preds = %7
  %11 = getelementptr inbounds %class.dtQueryFilter, ptr %4, i32 0, i32 0
  %12 = load i32, ptr %3, align 4
  %13 = sext i32 %12 to i64
  %14 = getelementptr inbounds [64 x float], ptr %11, i64 0, i64 %13
  store float 1.000000e+00, ptr %14, align 4
  br label %15

15:                                               ; preds = %10
  %16 = load i32, ptr %3, align 4
  %17 = add nsw i32 %16, 1
  store i32 %17, ptr %3, align 4
  br label %7, !llvm.loop !4

18:                                               ; preds = %7
  ret void
}