; Function Attrs: mustprogress nofree norecurse nosync nounwind memory(argmem: write) uwtable
define void @_ZN13dtQueryFilterC2Ev(ptr nocapture noundef nonnull writeonly align 4 dereferenceable(260) %0) unnamed_addr #0 align 2 {
  %2 = getelementptr inbounds i8, ptr %0, i64 256
  store i16 -1, ptr %2, align 4
  %3 = getelementptr inbounds i8, ptr %0, i64 258
  store i16 0, ptr %3, align 2
  br label %4

4:                                                ; preds = %1, %4
  %indvars.iv = phi i64 [ 0, %1 ], [ %indvars.iv.next, %4 ]
  %5 = getelementptr inbounds [64 x float], ptr %0, i64 0, i64 %indvars.iv
  store float 1.000000e+00, ptr %5, align 4
  %indvars.iv.next = add nuw nsw i64 %indvars.iv, 1
  %exitcond.not = icmp eq i64 %indvars.iv.next, 64
  br i1 %exitcond.not, label %6, label %4, !llvm.loop !4

6:                                                ; preds = %4
  ret void
}